; Function Attrs: cold nounwind optsize uwtable
define internal noundef i32 @cinvideo_decode_end(ptr noundef readonly captures(none) %0) #0 {
  %2 = getelementptr inbounds nuw i8, ptr %0, i64 32
  %3 = load ptr, ptr %2, align 8, !tbaa !4
  %4 = getelementptr inbounds nuw i8, ptr %3, i64 8
  tail call void @av_frame_free(ptr noundef nonnull %4) #7
  %5 = getelementptr inbounds nuw i8, ptr %3, i64 1048
  br label %6

6:                                                ; preds = %6, %1
  %indvars.iv.i = phi i64 [ 0, %1 ], [ %indvars.iv.next.i, %6 ]
  %7 = getelementptr inbounds nuw [3 x ptr], ptr %5, i64 0, i64 %indvars.iv.i
  tail call void @av_freep(ptr noundef nonnull %7) #7
  %indvars.iv.next.i = add nuw nsw i64 %indvars.iv.i, 1
  %exitcond.not.i = icmp eq i64 %indvars.iv.next.i, 3
  br i1 %exitcond.not.i, label %destroy_buffers.exit, label %6, !llvm.loop !53

destroy_buffers.exit:                             ; preds = %6
  ret i32 0
}